target datalayout = "e-m:e-p270:32:32-p271:32:32-p272:64:64-i64:64-i128:128-f80:128-n8:16:32:64-S128"
target triple = "x86_64-pc-linux-gnu"

%class.OopIterateClosure = type { %class.OopClosure, ptr }
%class.OopClosure = type { ptr }
%class.G1CMIsAliveClosure = type { %class.BoolObjectClosure, ptr }
%class.BoolObjectClosure = type { ptr }
%class.BitMap = type { ptr, i64 }
%class.G1MappingChangedListener = type { ptr }
%class.MemRegion = type { ptr, i64 }
%class.G1CMSubjectToDiscoveryClosure = type { %class.BoolObjectClosure, ptr }
%class.G1STWIsAliveClosure = type { %class.BoolObjectClosure, ptr }
%class.markWord = type { i64 }
%class.G1ParScanThreadState = type { ptr, ptr, ptr, %class.G1RedirtyCardsLocalQueueSet, ptr, ptr, ptr, %class.AgeTable, i32, [4 x i8], %class.G1ScanEvacuatedObjClosure, i32, i64, i32, i32, %class.TimeInterval, ptr, ptr, i64, i8, i32, %class.PartialArrayTaskStepper, %"class.StringDedup::Requests", i64, ptr, ptr, ptr, ptr, %class.EvacuationFailedInfo, ptr, i64 }
%class.G1RedirtyCardsLocalQueueSet = type { %class.PtrQueueSet, ptr, %struct.BufferNodeList, %"class.G1RedirtyCardsLocalQueueSet::Queue" }
%class.PtrQueueSet = type { ptr, ptr }
%struct.BufferNodeList = type { ptr, ptr, i64 }
%"class.G1RedirtyCardsLocalQueueSet::Queue" = type { %class.PtrQueue }
%class.PtrQueue = type { i64, ptr }
%class.AgeTable = type { [16 x i64], i8, [16 x ptr] }
%class.G1ScanEvacuatedObjClosure = type <{ %class.G1ScanClosureBase, i32, [4 x i8] }>
%class.G1ScanClosureBase = type { %class.BasicOopIterateClosure, ptr, ptr }
%class.BasicOopIterateClosure = type { %class.OopIterateClosure }
%class.TimeInterval = type { %class.CompositeCounterRepresentation }
%class.CompositeCounterRepresentation = type { %class.Representation }
%class.Representation = type { %class.PairRep }
%class.PairRep = type { i64, i64 }
%class.PartialArrayTaskStepper = type { i32, i32 }
%"class.StringDedup::Requests" = type <{ ptr, ptr, i64, i8, [7 x i8] }>
%class.EvacuationFailedInfo = type { %class.CopyFailedInfo.base, [4 x i8] }
%class.CopyFailedInfo.base = type <{ ptr, i64, i64, i64, i32 }>
%class.G1CollectedHeap = type { %class.CollectedHeap, ptr, ptr, ptr, ptr, ptr, %class.TimeInstant, %class.G1HeapRegionSet, %class.G1HeapRegionSet, %class.G1MonotonicArenaMemoryStats, %class.G1MonotonicArenaMemoryStats, ptr, %class.G1RegionMappingChangedListener, ptr, %class.G1HeapRegionManager, ptr, %class.G1YoungGCAllocationFailureInjector, ptr, i64, i64, %class.G1EvacStats, %class.G1EvacStats, ptr, i32, i32, %class.G1CollectorState, i32, i32, %class.G1EdenRegions, %class.G1SurvivorRegions, ptr, ptr, ptr, ptr, %class.G1CollectionSet, ptr, %class.G1CardSetConfiguration, %class.G1MonotonicArenaFreePool, ptr, ptr, ptr, ptr, ptr, %class.G1STWIsAliveClosure, %class.G1STWSubjectToDiscoveryClosure, ptr, %class.G1CMIsAliveClosure, %class.G1CMSubjectToDiscoveryClosure, %class.G1HeapRegionAttrBiasedMappedArray }
%class.CollectedHeap = type { ptr, ptr, i64, i64, %class.SoftRefPolicy, %class.MemRegion, i8, i64, i32, i32, i32, i32, ptr, ptr }
%class.SoftRefPolicy = type { i8, i8 }
%class.TimeInstant = type { %class.CompositeCounterRepresentation }
%class.G1HeapRegionSet = type { %class.G1HeapRegionSetBase.base, [7 x i8] }
%class.G1HeapRegionSetBase.base = type <{ ptr, ptr, i32, [4 x i8], ptr, i8 }>
%class.G1MonotonicArenaMemoryStats = type { [4 x i64], [4 x i64] }
%class.G1RegionMappingChangedListener = type { %class.G1MappingChangedListener }
%class.G1HeapRegionManager = type { ptr, ptr, %class.G1CommittedRegionMap, i32, [4 x i8], %class.G1HeapRegionTable, ptr, ptr, %class.G1FreeRegionList }
%class.G1CommittedRegionMap = type { ptr, %class.CHeapBitMap, %class.CHeapBitMap, i32, i32 }
%class.CHeapBitMap = type <{ %class.GrowableBitMap, i8, [7 x i8] }>
%class.GrowableBitMap = type { %class.BitMap }
%class.G1HeapRegionTable = type { %class.G1BiasedMappedArray.base, [4 x i8] }
%class.G1BiasedMappedArray.base = type { %class.G1BiasedMappedArrayBase.base }
%class.G1BiasedMappedArrayBase.base = type <{ ptr, ptr, ptr, i64, ptr, i64, i32 }>
%class.G1FreeRegionList = type { %class.G1HeapRegionSetBase.base, ptr, ptr, ptr, ptr }
%class.G1YoungGCAllocationFailureInjector = type { i8 }
%class.G1EvacStats = type { %class.PLABStats, i64, i64, %class.AdaptiveWeightedAverage, i64, i32, i64, i64, i64, i64, i64 }
%class.PLABStats = type { ptr, ptr, i64, i64, i64, i64 }
%class.AdaptiveWeightedAverage = type { float, i32, i32, i8, float }
%class.G1CollectorState = type { i8, i8, i8, i8, i8, i8, i8 }
%class.G1EdenRegions = type { i32, i64, %class.G1RegionsOnNodes }
%class.G1RegionsOnNodes = type { ptr, ptr }
%class.G1SurvivorRegions = type { ptr, i64, %class.G1RegionsOnNodes }
%class.G1CollectionSet = type { ptr, ptr, %class.G1CollectionSetCandidates, ptr, i32, i32, i32, i32, i32, %class.G1CollectionCandidateRegionList, i32, i64 }
%class.G1CollectionSetCandidates = type { [8 x i8], %class.G1CollectionCandidateList, %class.G1CollectionCandidateList, ptr, i32, i32 }
%class.G1CollectionCandidateList = type { %class.GrowableArray }
%class.GrowableArray = type { %class.GrowableArrayWithAllocator, %class.GrowableArrayMetadata }
%class.GrowableArrayWithAllocator = type { %class.GrowableArrayView }
%class.GrowableArrayView = type { %class.GrowableArrayBase, ptr }
%class.GrowableArrayBase = type { i32, i32 }
%class.GrowableArrayMetadata = type { i64 }
%class.G1CollectionCandidateRegionList = type { %class.GrowableArray.2 }
%class.GrowableArray.2 = type { %class.GrowableArrayWithAllocator.3, %class.GrowableArrayMetadata }
%class.GrowableArrayWithAllocator.3 = type { %class.GrowableArrayView.4 }
%class.GrowableArrayView.4 = type { %class.GrowableArrayBase, ptr }
%class.G1CardSetConfiguration = type { i32, i32, i32, i32, i32, i32, i32, i32, i32, i32, i32, ptr }
%class.G1MonotonicArenaFreePool = type { i32, ptr }
%class.G1STWSubjectToDiscoveryClosure = type { %class.BoolObjectClosure, ptr }
%class.G1HeapRegionAttrBiasedMappedArray = type { %class.G1BiasedMappedArray.base.6, [4 x i8] }
%class.G1BiasedMappedArray.base.6 = type { %class.G1BiasedMappedArrayBase.base }
%class.G1PLABAllocator = type { ptr, ptr, [2 x %"struct.G1PLABAllocator::PLABData"], i64 }
%"struct.G1PLABAllocator::PLABData" = type <{ ptr, i64, i64, i64, i64, i64, i32, [4 x i8] }>
%struct.G1HeapRegionAttr = type { i8, i8, i8 }
%class.PLAB = type { [32 x i8], i64, ptr, ptr, ptr, ptr, i64, i64, i64, [32 x i8] }
%class.oopDesc = type { %class.markWord, %"union.oopDesc::_metadata" }
%"union.oopDesc::_metadata" = type { ptr }

@UseCompressedClassPointers = external global i8, align 1
@_ZN23CompressedKlassPointers5_baseE = external global ptr, align 8
@_ZN23CompressedKlassPointers6_shiftE = external global i32, align 4

; Function Attrs: mustprogress nounwind uwtable
define linkonce_odr hidden noundef ptr @_ZN23CompressedKlassPointers31decode_not_null_without_assertsEjPhi(i32 noundef %0, ptr noundef %1, i32 noundef %2) #1 comdat align 2 {
  %4 = alloca i32, align 4
  %5 = alloca ptr, align 8
  %6 = alloca i32, align 4
  store i32 %0, ptr %4, align 4
  store ptr %1, ptr %5, align 8
  store i32 %2, ptr %6, align 4
  %7 = load ptr, ptr %5, align 8
  %8 = ptrtoint ptr %7 to i64
  %9 = load i32, ptr %4, align 4
  %10 = zext i32 %9 to i64
  %11 = load i32, ptr %6, align 4
  %12 = zext i32 %11 to i64
  %13 = shl i64 %10, %12
  %14 = add i64 %8, %13
  %15 = inttoptr i64 %14 to ptr
  ret ptr %15
}

; Function Attrs: mustprogress nounwind uwtable
define linkonce_odr hidden noundef ptr @_ZN23CompressedKlassPointers15decode_not_nullEjPhi(i32 noundef %0, ptr noundef %1, i32 noundef %2) #1 comdat align 2 {
  %4 = alloca i32, align 4
  %5 = alloca ptr, align 8
  %6 = alloca i32, align 4
  %7 = alloca ptr, align 8
  store i32 %0, ptr %4, align 4
  store ptr %1, ptr %5, align 8
  store i32 %2, ptr %6, align 4
  %8 = load i32, ptr %4, align 4
  %9 = load ptr, ptr %5, align 8
  %10 = load i32, ptr %6, align 4
  %11 = call noundef ptr @_ZN23CompressedKlassPointers31decode_not_null_without_assertsEjPhi(i32 noundef %8, ptr noundef %9, i32 noundef %10)
  store ptr %11, ptr %7, align 8
  %12 = load ptr, ptr %7, align 8
  ret ptr %12
}

; Function Attrs: mustprogress nounwind uwtable
define linkonce_odr hidden noundef i32 @_ZN23CompressedKlassPointers5shiftEv() #1 comdat align 2 {
  %1 = load i32, ptr @_ZN23CompressedKlassPointers6_shiftE, align 4
  ret i32 %1
}

; Function Attrs: mustprogress nounwind uwtable
define linkonce_odr hidden noundef ptr @_ZN23CompressedKlassPointers4baseEv() #1 comdat align 2 {
  %1 = load ptr, ptr @_ZN23CompressedKlassPointers5_baseE, align 8
  ret ptr %1
}

; Function Attrs: mustprogress nounwind uwtable
define linkonce_odr hidden noundef ptr @_ZN23CompressedKlassPointers15decode_not_nullEj(i32 noundef %0) #1 comdat align 2 {
  %2 = alloca i32, align 4
  store i32 %0, ptr %2, align 4
  %3 = load i32, ptr %2, align 4
  %4 = call noundef ptr @_ZN23CompressedKlassPointers4baseEv()
  %5 = call noundef i32 @_ZN23CompressedKlassPointers5shiftEv()
  %6 = call noundef ptr @_ZN23CompressedKlassPointers15decode_not_nullEjPhi(i32 noundef %3, ptr noundef %4, i32 noundef %5)
  ret ptr %6
}

; Function Attrs: mustprogress nounwind uwtable
define linkonce_odr hidden noundef ptr @_ZNK15G1PLABAllocator12alloc_bufferEaj(ptr noundef nonnull align 8 dereferenceable(136) %0, i8 noundef signext %1, i32 noundef %2) #1 comdat align 2 {
  %4 = alloca ptr, align 8
  %5 = alloca ptr, align 8
  %6 = alloca i8, align 1
  %7 = alloca i32, align 4
  store ptr %0, ptr %5, align 8
  store i8 %1, ptr %6, align 1
  store i32 %2, ptr %7, align 4
  %8 = load ptr, ptr %5, align 8
  %9 = load i8, ptr %6, align 1
  %10 = sext i8 %9 to i32
  %11 = icmp eq i32 %10, 0
  br i1 %11, label %12, label %23

12:                                               ; preds = %3
  %13 = getelementptr inbounds %class.G1PLABAllocator, ptr %8, i32 0, i32 2
  %14 = load i8, ptr %6, align 1
  %15 = sext i8 %14 to i64
  %16 = getelementptr inbounds [2 x %"struct.G1PLABAllocator::PLABData"], ptr %13, i64 0, i64 %15
  %17 = getelementptr inbounds %"struct.G1PLABAllocator::PLABData", ptr %16, i32 0, i32 0
  %18 = load ptr, ptr %17, align 8
  %19 = load i32, ptr %7, align 4
  %20 = zext i32 %19 to i64
  %21 = getelementptr inbounds ptr, ptr %18, i64 %20
  %22 = load ptr, ptr %21, align 8
  store ptr %22, ptr %4, align 8
  br label %32

23:                                               ; preds = %3
  %24 = getelementptr inbounds %class.G1PLABAllocator, ptr %8, i32 0, i32 2
  %25 = load i8, ptr %6, align 1
  %26 = sext i8 %25 to i64
  %27 = getelementptr inbounds [2 x %"struct.G1PLABAllocator::PLABData"], ptr %24, i64 0, i64 %26
  %28 = getelementptr inbounds %"struct.G1PLABAllocator::PLABData", ptr %27, i32 0, i32 0
  %29 = load ptr, ptr %28, align 8
  %30 = getelementptr inbounds ptr, ptr %29, i64 0
  %31 = load ptr, ptr %30, align 8
  store ptr %31, ptr %4, align 8
  br label %32

32:                                               ; preds = %23, %12
  %33 = load ptr, ptr %4, align 8
  ret ptr %33
}

; Function Attrs: mustprogress nounwind uwtable
define linkonce_odr hidden noundef i64 @_ZN4PLAB7word_szEv(ptr noundef nonnull align 8 dereferenceable(128) %0) #1 comdat align 2 {
  %2 = alloca ptr, align 8
  store ptr %0, ptr %2, align 8
  %3 = load ptr, ptr %2, align 8
  %4 = getelementptr inbounds %class.PLAB, ptr %3, i32 0, i32 1
  %5 = load i64, ptr %4, align 8
  ret i64 %5
}

; Function Attrs: mustprogress nounwind uwtable
define linkonce_odr hidden noundef signext i8 @_ZNK16G1HeapRegionAttr4typeEv(ptr noundef nonnull align 1 dereferenceable(3) %0) #1 comdat align 2 {
  %2 = alloca ptr, align 8
  store ptr %0, ptr %2, align 8
  %3 = load ptr, ptr %2, align 8
  %4 = getelementptr inbounds %struct.G1HeapRegionAttr, ptr %3, i32 0, i32 1
  %5 = load i8, ptr %4, align 1
  ret i8 %5
}

; Function Attrs: mustprogress nounwind uwtable
define linkonce_odr hidden noundef ptr @_ZNK7oopDesc5klassEv(ptr noundef nonnull align 8 dereferenceable(16) %0) #1 comdat align 2 {
  %2 = alloca ptr, align 8
  %3 = alloca ptr, align 8
  store ptr %0, ptr %3, align 8
  %4 = load ptr, ptr %3, align 8
  %5 = load i8, ptr @UseCompressedClassPointers, align 1
  %6 = trunc i8 %5 to i1
  br i1 %6, label %7, label %11

7:                                                ; preds = %1
  %8 = getelementptr inbounds %class.oopDesc, ptr %4, i32 0, i32 1
  %9 = load i32, ptr %8, align 8
  %10 = call noundef ptr @_ZN23CompressedKlassPointers15decode_not_nullEj(i32 noundef %9)
  store ptr %10, ptr %2, align 8
  br label %14

11:                                               ; preds = %1
  %12 = getelementptr inbounds %class.oopDesc, ptr %4, i32 0, i32 1
  %13 = load ptr, ptr %12, align 8
  store ptr %13, ptr %2, align 8
  br label %14

14:                                               ; preds = %11, %7
  %15 = load ptr, ptr %2, align 8
  ret ptr %15
}

; Function Attrs: mustprogress nounwind uwtable
define linkonce_odr hidden noundef ptr @_ZNK15G1CollectedHeap13gc_tracer_stwEv(ptr noundef nonnull align 8 dereferenceable(1488) %0) #1 comdat align 2 {
  %2 = alloca ptr, align 8
  store ptr %0, ptr %2, align 8
  %3 = load ptr, ptr %2, align 8
  %4 = getelementptr inbounds %class.G1CollectedHeap, ptr %3, i32 0, i32 31
  %5 = load ptr, ptr %4, align 8
  ret ptr %5
}

; Function Attrs: mustprogress nounwind uwtable
define linkonce_odr hidden noundef zeroext i1 @_ZN4PLAB8containsEPv(ptr noundef nonnull align 8 dereferenceable(128) %0, ptr noundef %1) #1 comdat align 2 {
  %3 = alloca ptr, align 8
  %4 = alloca ptr, align 8
  store ptr %0, ptr %3, align 8
  store ptr %1, ptr %4, align 8
  %5 = load ptr, ptr %3, align 8
  %6 = getelementptr inbounds %class.PLAB, ptr %5, i32 0, i32 2
  %7 = load ptr, ptr %6, align 8
  %8 = load ptr, ptr %4, align 8
  %9 = icmp ule ptr %7, %8
  br i1 %9, label %10, label %15

10:                                               ; preds = %2
  %11 = load ptr, ptr %4, align 8
  %12 = getelementptr inbounds %class.PLAB, ptr %5, i32 0, i32 5
  %13 = load ptr, ptr %12, align 8
  %14 = icmp ult ptr %11, %13
  br label %15

15:                                               ; preds = %10, %2
  %16 = phi i1 [ false, %2 ], [ %14, %10 ]
  ret i1 %16
}

; Function Attrs: mustprogress nounwind uwtable
define linkonce_odr hidden noundef ptr @_ZNK15G1PLABAllocator12alloc_bufferE16G1HeapRegionAttrj(ptr noundef nonnull align 8 dereferenceable(136) %0, i24 %1, i32 noundef %2) #1 comdat align 2 {
  %4 = alloca %struct.G1HeapRegionAttr, align 1
  %5 = alloca i24, align 4
  %6 = alloca ptr, align 8
  %7 = alloca i32, align 4
  store i24 %1, ptr %5, align 4
  call void @llvm.memcpy.p0.p0.i64(ptr align 1 %4, ptr align 4 %5, i64 3, i1 false)
  store ptr %0, ptr %6, align 8
  store i32 %2, ptr %7, align 4
  %8 = load ptr, ptr %6, align 8
  %9 = call noundef signext i8 @_ZNK16G1HeapRegionAttr4typeEv(ptr noundef nonnull align 1 dereferenceable(3) %4)
  %10 = load i32, ptr %7, align 4
  %11 = call noundef ptr @_ZNK15G1PLABAllocator12alloc_bufferEaj(ptr noundef nonnull align 8 dereferenceable(136) %8, i8 noundef signext %9, i32 noundef %10)
  ret ptr %11
}

; Function Attrs: mustprogress nounwind uwtable
define hidden void @_ZNK20G1ParScanThreadState22report_promotion_eventE16G1HeapRegionAttrP7oopDescmjPP12HeapWordImplj(ptr noundef nonnull align 8 dereferenceable(632) %0, i24 %1, ptr noundef %2, i64 noundef %3, i32 noundef %4, ptr noundef %5, i32 noundef %6) #1 align 2 {
  %8 = alloca %struct.G1HeapRegionAttr, align 1
  %9 = alloca i24, align 4
  %10 = alloca ptr, align 8
  %11 = alloca ptr, align 8
  %12 = alloca i64, align 8
  %13 = alloca i32, align 4
  %14 = alloca ptr, align 8
  %15 = alloca i32, align 4
  %16 = alloca ptr, align 8
  %17 = alloca %struct.G1HeapRegionAttr, align 1
  %18 = alloca i24, align 4
  store i24 %1, ptr %9, align 4
  call void @llvm.memcpy.p0.p0.i64(ptr align 1 %8, ptr align 4 %9, i64 3, i1 false)
  store ptr %0, ptr %10, align 8
  store ptr %2, ptr %11, align 8
  store i64 %3, ptr %12, align 8
  store i32 %4, ptr %13, align 4
  store ptr %5, ptr %14, align 8
  store i32 %6, ptr %15, align 4
  %19 = load ptr, ptr %10, align 8
  %20 = getelementptr inbounds %class.G1ParScanThreadState, ptr %19, i32 0, i32 6
  %21 = load ptr, ptr %20, align 8
  call void @llvm.memcpy.p0.p0.i64(ptr align 1 %17, ptr align 1 %8, i64 3, i1 false)
  %22 = load i32, ptr %15, align 4
  call void @llvm.memcpy.p0.p0.i64(ptr align 4 %18, ptr align 1 %17, i64 3, i1 false)
  %23 = load i24, ptr %18, align 4
  %24 = call noundef ptr @_ZNK15G1PLABAllocator12alloc_bufferE16G1HeapRegionAttrj(ptr noundef nonnull align 8 dereferenceable(136) %21, i24 %23, i32 noundef %22)
  store ptr %24, ptr %16, align 8
  %25 = load ptr, ptr %16, align 8
  %26 = load ptr, ptr %14, align 8
  %27 = call noundef zeroext i1 @_ZN4PLAB8containsEPv(ptr noundef nonnull align 8 dereferenceable(128) %25, ptr noundef %26)
  br i1 %27, label %28, label %43

28:                                               ; preds = %7
  %29 = getelementptr inbounds %class.G1ParScanThreadState, ptr %19, i32 0, i32 1
  %30 = load ptr, ptr %29, align 8
  %31 = call noundef ptr @_ZNK15G1CollectedHeap13gc_tracer_stwEv(ptr noundef nonnull align 8 dereferenceable(1488) %30)
  %32 = load ptr, ptr %11, align 8
  %33 = call noundef ptr @_ZNK7oopDesc5klassEv(ptr noundef nonnull align 8 dereferenceable(16) %32)
  %34 = load i64, ptr %12, align 8
  %35 = mul i64 %34, 8
  %36 = load i32, ptr %13, align 4
  %37 = call noundef signext i8 @_ZNK16G1HeapRegionAttr4typeEv(ptr noundef nonnull align 1 dereferenceable(3) %8)
  %38 = sext i8 %37 to i32
  %39 = icmp eq i32 %38, 1
  %40 = load ptr, ptr %16, align 8
  %41 = call noundef i64 @_ZN4PLAB7word_szEv(ptr noundef nonnull align 8 dereferenceable(128) %40)
  %42 = mul i64 %41, 8
  call void @_ZNK13YoungGCTracer34report_promotion_in_new_plab_eventEP5Klassmjbm(ptr noundef nonnull align 8 dereferenceable(84) %31, ptr noundef %33, i64 noundef %35, i32 noundef %36, i1 noundef zeroext %39, i64 noundef %42)
  br label %55

43:                                               ; preds = %7
  %44 = getelementptr inbounds %class.G1ParScanThreadState, ptr %19, i32 0, i32 1
  %45 = load ptr, ptr %44, align 8
  %46 = call noundef ptr @_ZNK15G1CollectedHeap13gc_tracer_stwEv(ptr noundef nonnull align 8 dereferenceable(1488) %45)
  %47 = load ptr, ptr %11, align 8
  %48 = call noundef ptr @_ZNK7oopDesc5klassEv(ptr noundef nonnull align 8 dereferenceable(16) %47)
  %49 = load i64, ptr %12, align 8
  %50 = mul i64 %49, 8
  %51 = load i32, ptr %13, align 4
  %52 = call noundef signext i8 @_ZNK16G1HeapRegionAttr4typeEv(ptr noundef nonnull align 1 dereferenceable(3) %8)
  %53 = sext i8 %52 to i32
  %54 = icmp eq i32 %53, 1
  call void @_ZNK13YoungGCTracer35report_promotion_outside_plab_eventEP5Klassmjb(ptr noundef nonnull align 8 dereferenceable(84) %46, ptr noundef %48, i64 noundef %50, i32 noundef %51, i1 noundef zeroext %54)
  br label %55

55:                                               ; preds = %43, %28
  ret void
}