; Function Attrs: mustprogress nounwind uwtable
define hidden void @_ZNK20G1ParScanThreadState22report_promotion_eventE16G1HeapRegionAttrP7oopDescmjPP12HeapWordImplj(ptr nocapture noundef nonnull readonly align 8 dereferenceable(632) %0, i24 %1, ptr nocapture noundef readonly %2, i64 noundef %3, i32 noundef %4, ptr noundef readnone %5, i32 noundef %6) local_unnamed_addr #0 align 2 {
  %.sroa.1.0.extract.shift = lshr i24 %1, 8
  %.sroa.1.0.extract.trunc = trunc i24 %.sroa.1.0.extract.shift to i8
  %8 = getelementptr inbounds i8, ptr %0, i64 104
  %9 = load ptr, ptr %8, align 8
  %10 = icmp eq i8 %.sroa.1.0.extract.trunc, 0
  %11 = getelementptr inbounds i8, ptr %9, i64 16
  br i1 %10, label %12, label %16

12:                                               ; preds = %7
  %13 = load ptr, ptr %11, align 8
  %14 = zext i32 %6 to i64
  %15 = getelementptr inbounds ptr, ptr %13, i64 %14
  br label %_ZNK15G1PLABAllocator12alloc_bufferE16G1HeapRegionAttrj.exit

16:                                               ; preds = %7
  %17 = sext i8 %.sroa.1.0.extract.trunc to i64
  %18 = getelementptr inbounds [2 x %"struct.G1PLABAllocator::PLABData"], ptr %11, i64 0, i64 %17
  %19 = load ptr, ptr %18, align 8
  br label %_ZNK15G1PLABAllocator12alloc_bufferE16G1HeapRegionAttrj.exit

_ZNK15G1PLABAllocator12alloc_bufferE16G1HeapRegionAttrj.exit: ; preds = %12, %16
  %.0.in.i.i = phi ptr [ %15, %12 ], [ %19, %16 ]
  %.0.i.i = load ptr, ptr %.0.in.i.i, align 8
  %20 = getelementptr inbounds i8, ptr %.0.i.i, i64 40
  %21 = load ptr, ptr %20, align 8
  %.not.i = icmp ule ptr %21, %5
  %22 = getelementptr inbounds i8, ptr %.0.i.i, i64 64
  %23 = load ptr, ptr %22, align 8
  %24 = icmp ugt ptr %23, %5
  %25 = select i1 %.not.i, i1 %24, i1 false
  %26 = getelementptr inbounds i8, ptr %0, i64 8
  %27 = load ptr, ptr %26, align 8
  %28 = getelementptr inbounds i8, ptr %27, i64 1056
  %29 = load ptr, ptr %28, align 8
  %30 = load i8, ptr @UseCompressedClassPointers, align 1
  %31 = trunc i8 %30 to i1
  %32 = getelementptr inbounds i8, ptr %2, i64 8
  br i1 %25, label %33, label %51

33:                                               ; preds = %_ZNK15G1PLABAllocator12alloc_bufferE16G1HeapRegionAttrj.exit
  br i1 %31, label %34, label %44

34:                                               ; preds = %33
  %35 = load i32, ptr %32, align 8
  %36 = load ptr, ptr @_ZN23CompressedKlassPointers5_baseE, align 8
  %37 = load i32, ptr @_ZN23CompressedKlassPointers6_shiftE, align 4
  %38 = ptrtoint ptr %36 to i64
  %39 = zext i32 %35 to i64
  %40 = zext nneg i32 %37 to i64
  %41 = shl i64 %39, %40
  %42 = add i64 %41, %38
  %43 = inttoptr i64 %42 to ptr
  br label %_ZNK7oopDesc5klassEv.exit

44:                                               ; preds = %33
  %45 = load ptr, ptr %32, align 8
  br label %_ZNK7oopDesc5klassEv.exit

_ZNK7oopDesc5klassEv.exit:                        ; preds = %34, %44
  %.0.i = phi ptr [ %43, %34 ], [ %45, %44 ]
  %46 = shl i64 %3, 3
  %47 = icmp eq i8 %.sroa.1.0.extract.trunc, 1
  %48 = getelementptr inbounds i8, ptr %.0.i.i, i64 32
  %49 = load i64, ptr %48, align 8
  %50 = shl i64 %49, 3
  tail call void @_ZNK13YoungGCTracer34report_promotion_in_new_plab_eventEP5Klassmjbm(ptr noundef nonnull align 8 dereferenceable(84) %29, ptr noundef %.0.i, i64 noundef %46, i32 noundef %4, i1 noundef zeroext %47, i64 noundef %50) #13
  br label %66

51:                                               ; preds = %_ZNK15G1PLABAllocator12alloc_bufferE16G1HeapRegionAttrj.exit
  br i1 %31, label %52, label %62

52:                                               ; preds = %51
  %53 = load i32, ptr %32, align 8
  %54 = load ptr, ptr @_ZN23CompressedKlassPointers5_baseE, align 8
  %55 = load i32, ptr @_ZN23CompressedKlassPointers6_shiftE, align 4
  %56 = ptrtoint ptr %54 to i64
  %57 = zext i32 %53 to i64
  %58 = zext nneg i32 %55 to i64
  %59 = shl i64 %57, %58
  %60 = add i64 %59, %56
  %61 = inttoptr i64 %60 to ptr
  br label %_ZNK7oopDesc5klassEv.exit12

62:                                               ; preds = %51
  %63 = load ptr, ptr %32, align 8
  br label %_ZNK7oopDesc5klassEv.exit12

_ZNK7oopDesc5klassEv.exit12:                      ; preds = %52, %62
  %.0.i11 = phi ptr [ %61, %52 ], [ %63, %62 ]
  %64 = shl i64 %3, 3
  %65 = icmp eq i8 %.sroa.1.0.extract.trunc, 1
  tail call void @_ZNK13YoungGCTracer35report_promotion_outside_plab_eventEP5Klassmjb(ptr noundef nonnull align 8 dereferenceable(84) %29, ptr noundef %.0.i11, i64 noundef %64, i32 noundef %4, i1 noundef zeroext %65) #13
  br label %66

66:                                               ; preds = %_ZNK7oopDesc5klassEv.exit12, %_ZNK7oopDesc5klassEv.exit
  ret void
}